target datalayout = "e-m:e-p270:32:32-p271:32:32-p272:64:64-i64:64-i128:128-f80:128-n8:16:32:64-S128"
target triple = "x86_64-pc-linux-gnu"

%struct.JSValue = type { %union.JSValueUnion, i64 }
%union.JSValueUnion = type { double }
%struct.JSRefCountHeader = type { i32 }

; Function Attrs: nounwind uwtable
define internal void @JS_FreeValue(ptr noundef %0, i64 %1, i64 %2) #0 {
  %4 = alloca %struct.JSValue, align 8
  %5 = alloca ptr, align 8
  %6 = alloca ptr, align 8
  %7 = getelementptr inbounds { i64, i64 }, ptr %4, i32 0, i32 0
  store i64 %1, ptr %7, align 8
  %8 = getelementptr inbounds { i64, i64 }, ptr %4, i32 0, i32 1
  store i64 %2, ptr %8, align 8
  store ptr %0, ptr %5, align 8
  %9 = getelementptr inbounds %struct.JSValue, ptr %4, i32 0, i32 1
  %10 = load i64, ptr %9, align 8
  %11 = trunc i64 %10 to i32
  %12 = icmp uge i32 %11, -11
  br i1 %12, label %13, label %28

13:                                               ; preds = %3
  %14 = getelementptr inbounds %struct.JSValue, ptr %4, i32 0, i32 0
  %15 = load ptr, ptr %14, align 8
  store ptr %15, ptr %6, align 8
  %16 = load ptr, ptr %6, align 8
  %17 = getelementptr inbounds %struct.JSRefCountHeader, ptr %16, i32 0, i32 0
  %18 = load i32, ptr %17, align 4
  %19 = add i32 %18, -1
  store i32 %19, ptr %17, align 4
  %20 = icmp sle i32 %19, 0
  br i1 %20, label %21, label %27

21:                                               ; preds = %13
  %22 = load ptr, ptr %5, align 8
  %23 = getelementptr inbounds { i64, i64 }, ptr %4, i32 0, i32 0
  %24 = load i64, ptr %23, align 8
  %25 = getelementptr inbounds { i64, i64 }, ptr %4, i32 0, i32 1
  %26 = load i64, ptr %25, align 8
  call void @__JS_FreeValue(ptr noundef %22, i64 %24, i64 %26)
  br label %27

27:                                               ; preds = %21, %13
  br label %28

28:                                               ; preds = %27, %3
  ret void
}

; Function Attrs: nounwind uwtable
define internal i32 @JS_IsException(i64 %0, i64 %1) #0 {
  %3 = alloca %struct.JSValue, align 8
  %4 = getelementptr inbounds { i64, i64 }, ptr %3, i32 0, i32 0
  store i64 %0, ptr %4, align 8
  %5 = getelementptr inbounds { i64, i64 }, ptr %3, i32 0, i32 1
  store i64 %1, ptr %5, align 8
  %6 = getelementptr inbounds %struct.JSValue, ptr %3, i32 0, i32 1
  %7 = load i64, ptr %6, align 8
  %8 = trunc i64 %7 to i32
  %9 = icmp eq i32 %8, 6
  %10 = xor i1 %9, true
  %11 = xor i1 %10, true
  %12 = zext i1 %11 to i32
  %13 = sext i32 %12 to i64
  %14 = trunc i64 %13 to i32
  ret i32 %14
}

; Function Attrs: nounwind uwtable
define dso_local void @js_std_eval_binary(ptr noundef %0, ptr noundef %1, i64 noundef %2, i32 noundef %3) #0 {
  %5 = alloca ptr, align 8
  %6 = alloca ptr, align 8
  %7 = alloca i64, align 8
  %8 = alloca i32, align 4
  %9 = alloca %struct.JSValue, align 8
  %10 = alloca %struct.JSValue, align 8
  %11 = alloca %struct.JSValue, align 8
  %12 = alloca %struct.JSValue, align 8
  %13 = alloca %struct.JSValue, align 8
  %14 = alloca %struct.JSValue, align 8
  store ptr %0, ptr %5, align 8
  store ptr %1, ptr %6, align 8
  store i64 %2, ptr %7, align 8
  store i32 %3, ptr %8, align 4
  %15 = load ptr, ptr %5, align 8
  %16 = load ptr, ptr %6, align 8
  %17 = load i64, ptr %7, align 8
  %18 = call { i64, i64 } @JS_ReadObject(ptr noundef %15, ptr noundef %16, i64 noundef %17, i32 noundef 1)
  %19 = getelementptr inbounds { i64, i64 }, ptr %11, i32 0, i32 0
  %20 = extractvalue { i64, i64 } %18, 0
  store i64 %20, ptr %19, align 8
  %21 = getelementptr inbounds { i64, i64 }, ptr %11, i32 0, i32 1
  %22 = extractvalue { i64, i64 } %18, 1
  store i64 %22, ptr %21, align 8
  call void @llvm.memcpy.p0.p0.i64(ptr align 8 %9, ptr align 8 %11, i64 16, i1 false)
  %23 = getelementptr inbounds { i64, i64 }, ptr %9, i32 0, i32 0
  %24 = load i64, ptr %23, align 8
  %25 = getelementptr inbounds { i64, i64 }, ptr %9, i32 0, i32 1
  %26 = load i64, ptr %25, align 8
  %27 = call i32 @JS_IsException(i64 %24, i64 %26)
  %28 = icmp ne i32 %27, 0
  br i1 %28, label %29, label %30

29:                                               ; preds = %4
  br label %111

30:                                               ; preds = %4
  %31 = load i32, ptr %8, align 4
  %32 = icmp ne i32 %31, 0
  br i1 %32, label %33, label %46

33:                                               ; preds = %30
  %34 = getelementptr inbounds %struct.JSValue, ptr %9, i32 0, i32 1
  %35 = load i64, ptr %34, align 8
  %36 = trunc i64 %35 to i32
  %37 = icmp eq i32 %36, -3
  br i1 %37, label %38, label %45

38:                                               ; preds = %33
  %39 = load ptr, ptr %5, align 8
  %40 = getelementptr inbounds { i64, i64 }, ptr %9, i32 0, i32 0
  %41 = load i64, ptr %40, align 8
  %42 = getelementptr inbounds { i64, i64 }, ptr %9, i32 0, i32 1
  %43 = load i64, ptr %42, align 8
  %44 = call i32 @js_module_set_import_meta(ptr noundef %39, i64 %41, i64 %43, i32 noundef 0, i32 noundef 0)
  br label %45

45:                                               ; preds = %38, %33
  br label %119

46:                                               ; preds = %30
  %47 = getelementptr inbounds %struct.JSValue, ptr %9, i32 0, i32 1
  %48 = load i64, ptr %47, align 8
  %49 = trunc i64 %48 to i32
  %50 = icmp eq i32 %49, -3
  br i1 %50, label %51, label %92

51:                                               ; preds = %46
  %52 = load ptr, ptr %5, align 8
  %53 = getelementptr inbounds { i64, i64 }, ptr %9, i32 0, i32 0
  %54 = load i64, ptr %53, align 8
  %55 = getelementptr inbounds { i64, i64 }, ptr %9, i32 0, i32 1
  %56 = load i64, ptr %55, align 8
  %57 = call i32 @JS_ResolveModule(ptr noundef %52, i64 %54, i64 %56)
  %58 = icmp slt i32 %57, 0
  br i1 %58, label %59, label %65

59:                                               ; preds = %51
  %60 = load ptr, ptr %5, align 8
  %61 = getelementptr inbounds { i64, i64 }, ptr %9, i32 0, i32 0
  %62 = load i64, ptr %61, align 8
  %63 = getelementptr inbounds { i64, i64 }, ptr %9, i32 0, i32 1
  %64 = load i64, ptr %63, align 8
  call void @JS_FreeValue(ptr noundef %60, i64 %62, i64 %64)
  br label %111

65:                                               ; preds = %51
  %66 = load ptr, ptr %5, align 8
  %67 = getelementptr inbounds { i64, i64 }, ptr %9, i32 0, i32 0
  %68 = load i64, ptr %67, align 8
  %69 = getelementptr inbounds { i64, i64 }, ptr %9, i32 0, i32 1
  %70 = load i64, ptr %69, align 8
  %71 = call i32 @js_module_set_import_meta(ptr noundef %66, i64 %68, i64 %70, i32 noundef 0, i32 noundef 1)
  %72 = load ptr, ptr %5, align 8
  %73 = getelementptr inbounds { i64, i64 }, ptr %9, i32 0, i32 0
  %74 = load i64, ptr %73, align 8
  %75 = getelementptr inbounds { i64, i64 }, ptr %9, i32 0, i32 1
  %76 = load i64, ptr %75, align 8
  %77 = call { i64, i64 } @JS_EvalFunction(ptr noundef %72, i64 %74, i64 %76)
  %78 = getelementptr inbounds { i64, i64 }, ptr %12, i32 0, i32 0
  %79 = extractvalue { i64, i64 } %77, 0
  store i64 %79, ptr %78, align 8
  %80 = getelementptr inbounds { i64, i64 }, ptr %12, i32 0, i32 1
  %81 = extractvalue { i64, i64 } %77, 1
  store i64 %81, ptr %80, align 8
  call void @llvm.memcpy.p0.p0.i64(ptr align 8 %10, ptr align 8 %12, i64 16, i1 false)
  %82 = load ptr, ptr %5, align 8
  %83 = getelementptr inbounds { i64, i64 }, ptr %10, i32 0, i32 0
  %84 = load i64, ptr %83, align 8
  %85 = getelementptr inbounds { i64, i64 }, ptr %10, i32 0, i32 1
  %86 = load i64, ptr %85, align 8
  %87 = call { i64, i64 } @js_std_await(ptr noundef %82, i64 %84, i64 %86)
  %88 = getelementptr inbounds { i64, i64 }, ptr %13, i32 0, i32 0
  %89 = extractvalue { i64, i64 } %87, 0
  store i64 %89, ptr %88, align 8
  %90 = getelementptr inbounds { i64, i64 }, ptr %13, i32 0, i32 1
  %91 = extractvalue { i64, i64 } %87, 1
  store i64 %91, ptr %90, align 8
  call void @llvm.memcpy.p0.p0.i64(ptr align 8 %10, ptr align 8 %13, i64 16, i1 false)
  br label %103

92:                                               ; preds = %46
  %93 = load ptr, ptr %5, align 8
  %94 = getelementptr inbounds { i64, i64 }, ptr %9, i32 0, i32 0
  %95 = load i64, ptr %94, align 8
  %96 = getelementptr inbounds { i64, i64 }, ptr %9, i32 0, i32 1
  %97 = load i64, ptr %96, align 8
  %98 = call { i64, i64 } @JS_EvalFunction(ptr noundef %93, i64 %95, i64 %97)
  %99 = getelementptr inbounds { i64, i64 }, ptr %14, i32 0, i32 0
  %100 = extractvalue { i64, i64 } %98, 0
  store i64 %100, ptr %99, align 8
  %101 = getelementptr inbounds { i64, i64 }, ptr %14, i32 0, i32 1
  %102 = extractvalue { i64, i64 } %98, 1
  store i64 %102, ptr %101, align 8
  call void @llvm.memcpy.p0.p0.i64(ptr align 8 %10, ptr align 8 %14, i64 16, i1 false)
  br label %103

103:                                              ; preds = %92, %65
  %104 = getelementptr inbounds { i64, i64 }, ptr %10, i32 0, i32 0
  %105 = load i64, ptr %104, align 8
  %106 = getelementptr inbounds { i64, i64 }, ptr %10, i32 0, i32 1
  %107 = load i64, ptr %106, align 8
  %108 = call i32 @JS_IsException(i64 %105, i64 %107)
  %109 = icmp ne i32 %108, 0
  br i1 %109, label %110, label %113

110:                                              ; preds = %103
  br label %111

111:                                              ; preds = %110, %59, %29
  %112 = load ptr, ptr %5, align 8
  call void @js_std_dump_error(ptr noundef %112)
  call void @exit(i32 noundef 1) #14
  unreachable

113:                                              ; preds = %103
  %114 = load ptr, ptr %5, align 8
  %115 = getelementptr inbounds { i64, i64 }, ptr %10, i32 0, i32 0
  %116 = load i64, ptr %115, align 8
  %117 = getelementptr inbounds { i64, i64 }, ptr %10, i32 0, i32 1
  %118 = load i64, ptr %117, align 8
  call void @JS_FreeValue(ptr noundef %114, i64 %116, i64 %118)
  br label %119

119:                                              ; preds = %113, %45
  ret void
}