; Function Attrs: nounwind uwtable
define dso_local void @js_std_eval_binary(ptr noundef %0, ptr noundef %1, i64 noundef %2, i32 noundef %3) local_unnamed_addr #0 {
  %5 = tail call { i64, i64 } @JS_ReadObject(ptr noundef %0, ptr noundef %1, i64 noundef %2, i32 noundef 1) #29
  %6 = extractvalue { i64, i64 } %5, 0
  %7 = extractvalue { i64, i64 } %5, 1
  %8 = and i64 %7, 4294967295
  %.not = icmp eq i64 %8, 6
  br i1 %.not, label %JS_FreeValue.exit, label %9

9:                                                ; preds = %4
  %.not38 = icmp eq i32 %3, 0
  %10 = icmp eq i64 %8, 4294967293
  br i1 %.not38, label %14, label %11

11:                                               ; preds = %9
  br i1 %10, label %12, label %JS_FreeValue.exit41

12:                                               ; preds = %11
  %13 = tail call i32 @js_module_set_import_meta(ptr noundef %0, i64 %6, i64 poison, i32 noundef 0, i32 noundef 0), !range !7
  br label %JS_FreeValue.exit41

14:                                               ; preds = %9
  br i1 %10, label %15, label %30

15:                                               ; preds = %14
  %16 = tail call i32 @JS_ResolveModule(ptr noundef %0, i64 %6, i64 %7) #29
  %17 = icmp slt i32 %16, 0
  br i1 %17, label %18, label %24

18:                                               ; preds = %15
  %19 = inttoptr i64 %6 to ptr
  %20 = load i32, ptr %19, align 4
  %21 = add i32 %20, -1
  store i32 %21, ptr %19, align 4
  %22 = icmp slt i32 %21, 1
  br i1 %22, label %23, label %JS_FreeValue.exit

23:                                               ; preds = %18
  tail call void @__JS_FreeValue(ptr noundef %0, i64 %6, i64 %7) #29
  br label %JS_FreeValue.exit

24:                                               ; preds = %15
  %25 = tail call i32 @js_module_set_import_meta(ptr noundef %0, i64 %6, i64 poison, i32 noundef 0, i32 noundef 1), !range !7
  %26 = tail call { i64, i64 } @JS_EvalFunction(ptr noundef %0, i64 %6, i64 %7) #29
  %27 = extractvalue { i64, i64 } %26, 0
  %28 = extractvalue { i64, i64 } %26, 1
  %29 = tail call { i64, i64 } @js_std_await(ptr noundef %0, i64 %27, i64 %28)
  br label %32

30:                                               ; preds = %14
  %31 = tail call { i64, i64 } @JS_EvalFunction(ptr noundef %0, i64 %6, i64 %7) #29
  br label %32

32:                                               ; preds = %30, %24
  %.pn = phi { i64, i64 } [ %29, %24 ], [ %31, %30 ]
  %.sroa.6.0 = extractvalue { i64, i64 } %.pn, 1
  %.sroa.07.0 = extractvalue { i64, i64 } %.pn, 0
  %33 = and i64 %.sroa.6.0, 4294967295
  %.not42 = icmp eq i64 %33, 6
  br i1 %.not42, label %JS_FreeValue.exit, label %34

JS_FreeValue.exit:                                ; preds = %23, %18, %32, %4
  tail call void @js_std_dump_error(ptr noundef %0)
  tail call void @exit(i32 noundef 1) #33
  unreachable

34:                                               ; preds = %32
  %35 = trunc i64 %.sroa.6.0 to i32
  %36 = icmp ugt i32 %35, -12
  br i1 %36, label %37, label %JS_FreeValue.exit41

37:                                               ; preds = %34
  %38 = inttoptr i64 %.sroa.07.0 to ptr
  %39 = load i32, ptr %38, align 4
  %40 = add i32 %39, -1
  store i32 %40, ptr %38, align 4
  %41 = icmp slt i32 %40, 1
  br i1 %41, label %42, label %JS_FreeValue.exit41

42:                                               ; preds = %37
  tail call void @__JS_FreeValue(ptr noundef %0, i64 %.sroa.07.0, i64 %.sroa.6.0) #29
  br label %JS_FreeValue.exit41

JS_FreeValue.exit41:                              ; preds = %42, %37, %34, %11, %12
  ret void
}